target datalayout = "e-m:e-p270:32:32-p271:32:32-p272:64:64-i64:64-i128:128-f80:128-n8:16:32:64-S128"
target triple = "x86_64-pc-linux-gnu"

; Function Attrs: nounwind uwtable
define internal void @next_byte(ptr noundef %0, ptr noundef %1) #1 {
  %3 = alloca ptr, align 8
  %4 = alloca ptr, align 8
  %5 = alloca i8, align 1
  %6 = alloca i32, align 4
  store ptr %0, ptr %3, align 8, !tbaa !78
  store ptr %1, ptr %4, align 8, !tbaa !83
  call void @llvm.lifetime.start.p0(i64 1, ptr %5) #8
  call void @llvm.lifetime.start.p0(i64 4, ptr %6) #8
  %7 = load ptr, ptr %3, align 8, !tbaa !78
  %8 = call i32 @avio_read(ptr noundef %7, ptr noundef %5, i32 noundef 1)
  store i32 %8, ptr %6, align 4, !tbaa !9
  %9 = load i32, ptr %6, align 4, !tbaa !9
  %10 = icmp sgt i32 %9, 0
  br i1 %10, label %11, label %14

11:                                               ; preds = %2
  %12 = load i8, ptr %5, align 1, !tbaa !14
  %13 = zext i8 %12 to i32
  br label %22

14:                                               ; preds = %2
  %15 = load i32, ptr %6, align 4, !tbaa !9
  %16 = icmp eq i32 %15, 0
  br i1 %16, label %17, label %18

17:                                               ; preds = %14
  br label %20

18:                                               ; preds = %14
  %19 = load i32, ptr %6, align 4, !tbaa !9
  br label %20

20:                                               ; preds = %18, %17
  %21 = phi i32 [ -541478725, %17 ], [ %19, %18 ]
  br label %22

22:                                               ; preds = %20, %11
  %23 = phi i32 [ %13, %11 ], [ %21, %20 ]
  %24 = load ptr, ptr %4, align 8, !tbaa !83
  store i32 %23, ptr %24, align 4, !tbaa !9
  call void @llvm.lifetime.end.p0(i64 4, ptr %6) #8
  call void @llvm.lifetime.end.p0(i64 1, ptr %5) #8
  ret void
}

; Function Attrs: nounwind uwtable
define internal void @skip_spaces(ptr noundef %0, ptr noundef %1) #1 {
  %3 = alloca ptr, align 8
  %4 = alloca ptr, align 8
  store ptr %0, ptr %3, align 8, !tbaa !78
  store ptr %1, ptr %4, align 8, !tbaa !83
  br label %5

5:                                                ; preds = %23, %2
  %6 = load ptr, ptr %4, align 8, !tbaa !83
  %7 = load i32, ptr %6, align 4, !tbaa !9
  %8 = icmp eq i32 %7, 32
  br i1 %8, label %21, label %9

9:                                                ; preds = %5
  %10 = load ptr, ptr %4, align 8, !tbaa !83
  %11 = load i32, ptr %10, align 4, !tbaa !9
  %12 = icmp eq i32 %11, 9
  br i1 %12, label %21, label %13

13:                                               ; preds = %9
  %14 = load ptr, ptr %4, align 8, !tbaa !83
  %15 = load i32, ptr %14, align 4, !tbaa !9
  %16 = icmp eq i32 %15, 10
  br i1 %16, label %21, label %17

17:                                               ; preds = %13
  %18 = load ptr, ptr %4, align 8, !tbaa !83
  %19 = load i32, ptr %18, align 4, !tbaa !9
  %20 = icmp eq i32 %19, 13
  br label %21

21:                                               ; preds = %17, %13, %9, %5
  %22 = phi i1 [ true, %13 ], [ true, %9 ], [ true, %5 ], [ %20, %17 ]
  br i1 %22, label %23, label %26

23:                                               ; preds = %21
  %24 = load ptr, ptr %3, align 8, !tbaa !78
  %25 = load ptr, ptr %4, align 8, !tbaa !83
  call void @next_byte(ptr noundef %24, ptr noundef %25)
  br label %5, !llvm.loop !94

26:                                               ; preds = %21
  ret void
}

; Function Attrs: nounwind uwtable
define internal i32 @expect_byte(ptr noundef %0, ptr noundef %1, i8 noundef zeroext %2) #1 {
  %4 = alloca i32, align 4
  %5 = alloca ptr, align 8
  %6 = alloca ptr, align 8
  %7 = alloca i8, align 1
  store ptr %0, ptr %5, align 8, !tbaa !78
  store ptr %1, ptr %6, align 8, !tbaa !83
  store i8 %2, ptr %7, align 1, !tbaa !14
  %8 = load ptr, ptr %5, align 8, !tbaa !78
  %9 = load ptr, ptr %6, align 8, !tbaa !83
  call void @skip_spaces(ptr noundef %8, ptr noundef %9)
  %10 = load ptr, ptr %6, align 8, !tbaa !83
  %11 = load i32, ptr %10, align 4, !tbaa !9
  %12 = load i8, ptr %7, align 1, !tbaa !14
  %13 = zext i8 %12 to i32
  %14 = icmp ne i32 %11, %13
  br i1 %14, label %15, label %25

15:                                               ; preds = %3
  %16 = load ptr, ptr %6, align 8, !tbaa !83
  %17 = load i32, ptr %16, align 4, !tbaa !9
  %18 = icmp slt i32 %17, 0
  br i1 %18, label %19, label %22

19:                                               ; preds = %15
  %20 = load ptr, ptr %6, align 8, !tbaa !83
  %21 = load i32, ptr %20, align 4, !tbaa !9
  br label %23

22:                                               ; preds = %15
  br label %23

23:                                               ; preds = %22, %19
  %24 = phi i32 [ %21, %19 ], [ -1094995529, %22 ]
  store i32 %24, ptr %4, align 4
  br label %28

25:                                               ; preds = %3
  %26 = load ptr, ptr %5, align 8, !tbaa !78
  %27 = load ptr, ptr %6, align 8, !tbaa !83
  call void @next_byte(ptr noundef %26, ptr noundef %27)
  store i32 0, ptr %4, align 4
  br label %28

28:                                               ; preds = %25, %23
  %29 = load i32, ptr %4, align 4
  ret i32 %29
}