; Function Attrs: nounwind uwtable
define internal fastcc range(i32 -2147483648, 1) i32 @expect_byte(ptr noundef %0, ptr noundef nonnull captures(none) %1, i8 noundef zeroext range(i8 34, 126) %2) unnamed_addr #2 {
  %4 = alloca i8, align 1
  %5 = alloca i8, align 1
  %.pr.i = load i32, ptr %1, align 4, !tbaa !31
  br label %6

6:                                                ; preds = %.critedge.i, %3
  %7 = phi i32 [ %14, %.critedge.i ], [ %.pr.i, %3 ]
  switch i32 %7, label %skip_spaces.exit [
    i32 32, label %.critedge.i
    i32 9, label %.critedge.i
    i32 10, label %.critedge.i
    i32 13, label %.critedge.i
  ]

.critedge.i:                                      ; preds = %6, %6, %6, %6
  call void @llvm.lifetime.start.p0(i64 1, ptr nonnull %5) #7
  %8 = call i32 @avio_read(ptr noundef %0, ptr noundef nonnull %5, i32 noundef 1) #7
  %9 = icmp sgt i32 %8, 0
  %10 = load i8, ptr %5, align 1
  %11 = zext i8 %10 to i32
  %12 = icmp eq i32 %8, 0
  %13 = select i1 %12, i32 -541478725, i32 %8
  %14 = select i1 %9, i32 %11, i32 %13
  store i32 %14, ptr %1, align 4, !tbaa !31
  call void @llvm.lifetime.end.p0(i64 1, ptr nonnull %5) #7
  br label %6, !llvm.loop !76

skip_spaces.exit:                                 ; preds = %6
  %15 = zext nneg i8 %2 to i32
  %.not = icmp eq i32 %7, %15
  br i1 %.not, label %18, label %16

16:                                               ; preds = %skip_spaces.exit
  %17 = icmp slt i32 %7, 0
  %spec.select = select i1 %17, i32 %7, i32 -1094995529
  br label %26

18:                                               ; preds = %skip_spaces.exit
  call void @llvm.lifetime.start.p0(i64 1, ptr nonnull %4) #7
  %19 = call i32 @avio_read(ptr noundef %0, ptr noundef nonnull %4, i32 noundef 1) #7
  %20 = icmp sgt i32 %19, 0
  %21 = load i8, ptr %4, align 1
  %22 = zext i8 %21 to i32
  %23 = icmp eq i32 %19, 0
  %24 = select i1 %23, i32 -541478725, i32 %19
  %25 = select i1 %20, i32 %22, i32 %24
  store i32 %25, ptr %1, align 4, !tbaa !31
  call void @llvm.lifetime.end.p0(i64 1, ptr nonnull %4) #7
  br label %26

26:                                               ; preds = %18, %16
  %.0 = phi i32 [ %spec.select, %16 ], [ 0, %18 ]
  ret i32 %.0
}